target datalayout = "e-m:e-p270:32:32-p271:32:32-p272:64:64-i64:64-i128:128-f80:128-n8:16:32:64-S128"
target triple = "x86_64-pc-linux-gnu"

%class.btAlignedObjectArray = type <{ [4 x i8], i32, i32, [4 x i8], ptr, i8, [7 x i8] }>
%struct.btMatrixX = type { i32, i32, i32, i32, i32, [4 x i8], %class.btAlignedObjectArray, %class.btAlignedObjectArray.0 }
%class.btAlignedObjectArray.0 = type <{ [4 x i8], i32, i32, [4 x i8], ptr, i8, [7 x i8] }>

; Function Attrs: inlinehint mustprogress nounwind uwtable
define linkonce_odr dso_local noundef nonnull align 4 dereferenceable(4) ptr @_ZN20btAlignedObjectArrayIfEixEi(ptr noundef nonnull align 8 dereferenceable(25) %0, i32 noundef %1) #3 comdat align 2 {
  %3 = alloca ptr, align 8
  %4 = alloca i32, align 4
  store ptr %0, ptr %3, align 8, !tbaa !76
  store i32 %1, ptr %4, align 4, !tbaa !9
  %5 = load ptr, ptr %3, align 8
  %6 = getelementptr inbounds nuw %class.btAlignedObjectArray, ptr %5, i32 0, i32 4
  %7 = load ptr, ptr %6, align 8, !tbaa !87
  %8 = load i32, ptr %4, align 4, !tbaa !9
  %9 = sext i32 %8 to i64
  %10 = getelementptr inbounds float, ptr %7, i64 %9
  ret ptr %10
}

; Function Attrs: inlinehint mustprogress nounwind uwtable
define linkonce_odr dso_local noundef nonnull align 4 dereferenceable(4) ptr @_ZNK20btAlignedObjectArrayIfEixEi(ptr noundef nonnull align 8 dereferenceable(25) %0, i32 noundef %1) #3 comdat align 2 {
  %3 = alloca ptr, align 8
  %4 = alloca i32, align 4
  store ptr %0, ptr %3, align 8, !tbaa !76
  store i32 %1, ptr %4, align 4, !tbaa !9
  %5 = load ptr, ptr %3, align 8
  %6 = getelementptr inbounds nuw %class.btAlignedObjectArray, ptr %5, i32 0, i32 4
  %7 = load ptr, ptr %6, align 8, !tbaa !87
  %8 = load i32, ptr %4, align 4, !tbaa !9
  %9 = sext i32 %8 to i64
  %10 = getelementptr inbounds float, ptr %7, i64 %9
  ret ptr %10
}

; Function Attrs: mustprogress nounwind uwtable
define linkonce_odr dso_local void @_ZN9btMatrixXIfE7mulElemEiif(ptr noundef nonnull align 8 dereferenceable(88) %0, i32 noundef %1, i32 noundef %2, float noundef %3) #1 comdat align 2 {
  %5 = alloca ptr, align 8
  %6 = alloca i32, align 4
  %7 = alloca i32, align 4
  %8 = alloca float, align 4
  store ptr %0, ptr %5, align 8, !tbaa !39
  store i32 %1, ptr %6, align 4, !tbaa !9
  store i32 %2, ptr %7, align 4, !tbaa !9
  store float %3, ptr %8, align 4, !tbaa !16
  %9 = load ptr, ptr %5, align 8
  %10 = getelementptr inbounds nuw %struct.btMatrixX, ptr %9, i32 0, i32 4
  %11 = load i32, ptr %10, align 8, !tbaa !45
  %12 = add nsw i32 %11, 1
  store i32 %12, ptr %10, align 8, !tbaa !45
  %13 = load float, ptr %8, align 4, !tbaa !16
  %14 = getelementptr inbounds nuw %struct.btMatrixX, ptr %9, i32 0, i32 6
  %15 = load i32, ptr %6, align 4, !tbaa !9
  %16 = getelementptr inbounds nuw %struct.btMatrixX, ptr %9, i32 0, i32 1
  %17 = load i32, ptr %16, align 4, !tbaa !42
  %18 = mul nsw i32 %15, %17
  %19 = load i32, ptr %7, align 4, !tbaa !9
  %20 = add nsw i32 %18, %19
  %21 = call noundef nonnull align 4 dereferenceable(4) ptr @_ZN20btAlignedObjectArrayIfEixEi(ptr noundef nonnull align 8 dereferenceable(25) %14, i32 noundef %20)
  %22 = load float, ptr %21, align 4, !tbaa !16
  %23 = fmul float %22, %13
  store float %23, ptr %21, align 4, !tbaa !16
  ret void
}

; Function Attrs: mustprogress uwtable
define linkonce_odr dso_local void @_ZN9btMatrixXIfE7setElemEiif(ptr noundef nonnull align 8 dereferenceable(88) %0, i32 noundef %1, i32 noundef %2, float noundef %3) #2 comdat align 2 {
  %5 = alloca ptr, align 8
  %6 = alloca i32, align 4
  %7 = alloca i32, align 4
  %8 = alloca float, align 4
  store ptr %0, ptr %5, align 8, !tbaa !39
  store i32 %1, ptr %6, align 4, !tbaa !9
  store i32 %2, ptr %7, align 4, !tbaa !9
  store float %3, ptr %8, align 4, !tbaa !16
  %9 = load ptr, ptr %5, align 8
  %10 = getelementptr inbounds nuw %struct.btMatrixX, ptr %9, i32 0, i32 4
  %11 = load i32, ptr %10, align 8, !tbaa !45
  %12 = add nsw i32 %11, 1
  store i32 %12, ptr %10, align 8, !tbaa !45
  %13 = load float, ptr %8, align 4, !tbaa !16
  %14 = getelementptr inbounds nuw %struct.btMatrixX, ptr %9, i32 0, i32 6
  %15 = load i32, ptr %6, align 4, !tbaa !9
  %16 = getelementptr inbounds nuw %struct.btMatrixX, ptr %9, i32 0, i32 1
  %17 = load i32, ptr %16, align 4, !tbaa !42
  %18 = mul nsw i32 %15, %17
  %19 = load i32, ptr %7, align 4, !tbaa !9
  %20 = add nsw i32 %18, %19
  %21 = call noundef nonnull align 4 dereferenceable(4) ptr @_ZN20btAlignedObjectArrayIfEixEi(ptr noundef nonnull align 8 dereferenceable(25) %14, i32 noundef %20)
  store float %13, ptr %21, align 4, !tbaa !16
  ret void
}

; Function Attrs: mustprogress nounwind uwtable
define linkonce_odr dso_local noundef i32 @_ZNK9btMatrixXIfE4colsEv(ptr noundef nonnull align 8 dereferenceable(88) %0) #1 comdat align 2 {
  %2 = alloca ptr, align 8
  store ptr %0, ptr %2, align 8, !tbaa !39
  %3 = load ptr, ptr %2, align 8
  %4 = getelementptr inbounds nuw %struct.btMatrixX, ptr %3, i32 0, i32 1
  %5 = load i32, ptr %4, align 4, !tbaa !42
  ret i32 %5
}

; Function Attrs: mustprogress nounwind uwtable
define linkonce_odr dso_local noundef i32 @_ZNK9btMatrixXIfE4rowsEv(ptr noundef nonnull align 8 dereferenceable(88) %0) #1 comdat align 2 {
  %2 = alloca ptr, align 8
  store ptr %0, ptr %2, align 8, !tbaa !39
  %3 = load ptr, ptr %2, align 8
  %4 = getelementptr inbounds nuw %struct.btMatrixX, ptr %3, i32 0, i32 0
  %5 = load i32, ptr %4, align 8, !tbaa !41
  ret i32 %5
}

; Function Attrs: mustprogress uwtable
define linkonce_odr dso_local noundef nonnull align 4 dereferenceable(4) ptr @_ZNK9btMatrixXIfEclEii(ptr noundef nonnull align 8 dereferenceable(88) %0, i32 noundef %1, i32 noundef %2) #2 comdat align 2 {
  %4 = alloca ptr, align 8
  %5 = alloca i32, align 4
  %6 = alloca i32, align 4
  store ptr %0, ptr %4, align 8, !tbaa !39
  store i32 %1, ptr %5, align 4, !tbaa !9
  store i32 %2, ptr %6, align 4, !tbaa !9
  %7 = load ptr, ptr %4, align 8
  %8 = getelementptr inbounds nuw %struct.btMatrixX, ptr %7, i32 0, i32 6
  %9 = load i32, ptr %6, align 4, !tbaa !9
  %10 = load i32, ptr %5, align 4, !tbaa !9
  %11 = getelementptr inbounds nuw %struct.btMatrixX, ptr %7, i32 0, i32 1
  %12 = load i32, ptr %11, align 4, !tbaa !42
  %13 = mul nsw i32 %10, %12
  %14 = add nsw i32 %9, %13
  %15 = call noundef nonnull align 4 dereferenceable(4) ptr @_ZNK20btAlignedObjectArrayIfEixEi(ptr noundef nonnull align 8 dereferenceable(25) %8, i32 noundef %14)
  ret ptr %15
}

; Function Attrs: mustprogress uwtable
define dso_local void @_ZN16btLemkeAlgorithm26GaussJordanEliminationStepER9btMatrixXIfEiiRK20btAlignedObjectArrayIiE(ptr noundef nonnull align 8 dereferenceable(140) %0, ptr noundef nonnull align 8 dereferenceable(88) %1, i32 noundef %2, i32 noundef %3, ptr noundef nonnull align 8 dereferenceable(25) %4) #2 align 2 {
  %6 = alloca ptr, align 8
  %7 = alloca ptr, align 8
  %8 = alloca i32, align 4
  %9 = alloca i32, align 4
  %10 = alloca ptr, align 8
  %11 = alloca float, align 4
  %12 = alloca i32, align 4
  %13 = alloca i32, align 4
  %14 = alloca i32, align 4
  %15 = alloca float, align 4
  %16 = alloca i32, align 4
  %17 = alloca i32, align 4
  store ptr %0, ptr %6, align 8, !tbaa !20
  store ptr %1, ptr %7, align 8, !tbaa !39
  store i32 %2, ptr %8, align 4, !tbaa !9
  store i32 %3, ptr %9, align 4, !tbaa !9
  store ptr %4, ptr %10, align 8, !tbaa !55
  call void @llvm.lifetime.start.p0(i64 4, ptr %11) #10
  %18 = load ptr, ptr %7, align 8, !tbaa !39
  %19 = load i32, ptr %8, align 4, !tbaa !9
  %20 = load i32, ptr %9, align 4, !tbaa !9
  %21 = call noundef nonnull align 4 dereferenceable(4) ptr @_ZNK9btMatrixXIfEclEii(ptr noundef nonnull align 8 dereferenceable(88) %18, i32 noundef %19, i32 noundef %20)
  %22 = load float, ptr %21, align 4, !tbaa !16
  %23 = fdiv float -1.000000e+00, %22
  store float %23, ptr %11, align 4, !tbaa !16
  call void @llvm.lifetime.start.p0(i64 4, ptr %12) #10
  store i32 0, ptr %12, align 4, !tbaa !9
  br label %24

24:                                               ; preds = %75, %5
  %25 = load i32, ptr %12, align 4, !tbaa !9
  %26 = load ptr, ptr %7, align 8, !tbaa !39
  %27 = call noundef i32 @_ZNK9btMatrixXIfE4rowsEv(ptr noundef nonnull align 8 dereferenceable(88) %26)
  %28 = icmp slt i32 %25, %27
  br i1 %28, label %30, label %29

29:                                               ; preds = %24
  store i32 2, ptr %13, align 4
  call void @llvm.lifetime.end.p0(i64 4, ptr %12) #10
  br label %78

30:                                               ; preds = %24
  %31 = load i32, ptr %12, align 4, !tbaa !9
  %32 = load i32, ptr %8, align 4, !tbaa !9
  %33 = icmp ne i32 %31, %32
  br i1 %33, label %34, label %74

34:                                               ; preds = %30
  call void @llvm.lifetime.start.p0(i64 4, ptr %14) #10
  store i32 0, ptr %14, align 4, !tbaa !9
  br label %35

35:                                               ; preds = %70, %34
  %36 = load i32, ptr %14, align 4, !tbaa !9
  %37 = load ptr, ptr %7, align 8, !tbaa !39
  %38 = call noundef i32 @_ZNK9btMatrixXIfE4colsEv(ptr noundef nonnull align 8 dereferenceable(88) %37)
  %39 = icmp slt i32 %36, %38
  br i1 %39, label %41, label %40

40:                                               ; preds = %35
  store i32 5, ptr %13, align 4
  call void @llvm.lifetime.end.p0(i64 4, ptr %14) #10
  br label %73

41:                                               ; preds = %35
  %42 = load i32, ptr %14, align 4, !tbaa !9
  %43 = load i32, ptr %9, align 4, !tbaa !9
  %44 = icmp ne i32 %42, %43
  br i1 %44, label %45, label %69

45:                                               ; preds = %41
  call void @llvm.lifetime.start.p0(i64 4, ptr %15) #10
  %46 = load ptr, ptr %7, align 8, !tbaa !39
  %47 = load i32, ptr %12, align 4, !tbaa !9
  %48 = load i32, ptr %14, align 4, !tbaa !9
  %49 = call noundef nonnull align 4 dereferenceable(4) ptr @_ZNK9btMatrixXIfEclEii(ptr noundef nonnull align 8 dereferenceable(88) %46, i32 noundef %47, i32 noundef %48)
  %50 = load float, ptr %49, align 4, !tbaa !16
  store float %50, ptr %15, align 4, !tbaa !16
  %51 = load ptr, ptr %7, align 8, !tbaa !39
  %52 = load i32, ptr %8, align 4, !tbaa !9
  %53 = load i32, ptr %14, align 4, !tbaa !9
  %54 = call noundef nonnull align 4 dereferenceable(4) ptr @_ZNK9btMatrixXIfEclEii(ptr noundef nonnull align 8 dereferenceable(88) %51, i32 noundef %52, i32 noundef %53)
  %55 = load float, ptr %54, align 4, !tbaa !16
  %56 = load ptr, ptr %7, align 8, !tbaa !39
  %57 = load i32, ptr %12, align 4, !tbaa !9
  %58 = load i32, ptr %9, align 4, !tbaa !9
  %59 = call noundef nonnull align 4 dereferenceable(4) ptr @_ZNK9btMatrixXIfEclEii(ptr noundef nonnull align 8 dereferenceable(88) %56, i32 noundef %57, i32 noundef %58)
  %60 = load float, ptr %59, align 4, !tbaa !16
  %61 = fmul float %55, %60
  %62 = load float, ptr %11, align 4, !tbaa !16
  %63 = load float, ptr %15, align 4, !tbaa !16
  %64 = call float @llvm.fmuladd.f32(float %61, float %62, float %63)
  store float %64, ptr %15, align 4, !tbaa !16
  %65 = load ptr, ptr %7, align 8, !tbaa !39
  %66 = load i32, ptr %12, align 4, !tbaa !9
  %67 = load i32, ptr %14, align 4, !tbaa !9
  %68 = load float, ptr %15, align 4, !tbaa !16
  call void @_ZN9btMatrixXIfE7setElemEiif(ptr noundef nonnull align 8 dereferenceable(88) %65, i32 noundef %66, i32 noundef %67, float noundef %68)
  call void @llvm.lifetime.end.p0(i64 4, ptr %15) #10
  br label %69

69:                                               ; preds = %45, %41
  br label %70

70:                                               ; preds = %69
  %71 = load i32, ptr %14, align 4, !tbaa !9
  %72 = add nsw i32 %71, 1
  store i32 %72, ptr %14, align 4, !tbaa !9
  br label %35, !llvm.loop !62

73:                                               ; preds = %40
  br label %74

74:                                               ; preds = %73, %30
  br label %75

75:                                               ; preds = %74
  %76 = load i32, ptr %12, align 4, !tbaa !9
  %77 = add nsw i32 %76, 1
  store i32 %77, ptr %12, align 4, !tbaa !9
  br label %24, !llvm.loop !63

78:                                               ; preds = %29
  call void @llvm.lifetime.start.p0(i64 4, ptr %16) #10
  store i32 0, ptr %16, align 4, !tbaa !9
  br label %79

79:                                               ; preds = %91, %78
  %80 = load i32, ptr %16, align 4, !tbaa !9
  %81 = load ptr, ptr %7, align 8, !tbaa !39
  %82 = call noundef i32 @_ZNK9btMatrixXIfE4colsEv(ptr noundef nonnull align 8 dereferenceable(88) %81)
  %83 = icmp slt i32 %80, %82
  br i1 %83, label %85, label %84

84:                                               ; preds = %79
  store i32 8, ptr %13, align 4
  call void @llvm.lifetime.end.p0(i64 4, ptr %16) #10
  br label %94

85:                                               ; preds = %79
  %86 = load ptr, ptr %7, align 8, !tbaa !39
  %87 = load i32, ptr %8, align 4, !tbaa !9
  %88 = load i32, ptr %16, align 4, !tbaa !9
  %89 = load float, ptr %11, align 4, !tbaa !16
  %90 = fneg float %89
  call void @_ZN9btMatrixXIfE7mulElemEiif(ptr noundef nonnull align 8 dereferenceable(88) %86, i32 noundef %87, i32 noundef %88, float noundef %90)
  br label %91

91:                                               ; preds = %85
  %92 = load i32, ptr %16, align 4, !tbaa !9
  %93 = add nsw i32 %92, 1
  store i32 %93, ptr %16, align 4, !tbaa !9
  br label %79, !llvm.loop !64

94:                                               ; preds = %84
  call void @llvm.lifetime.start.p0(i64 4, ptr %17) #10
  store i32 0, ptr %17, align 4, !tbaa !9
  br label %95

95:                                               ; preds = %110, %94
  %96 = load i32, ptr %17, align 4, !tbaa !9
  %97 = load ptr, ptr %7, align 8, !tbaa !39
  %98 = call noundef i32 @_ZNK9btMatrixXIfE4rowsEv(ptr noundef nonnull align 8 dereferenceable(88) %97)
  %99 = icmp slt i32 %96, %98
  br i1 %99, label %101, label %100

100:                                              ; preds = %95
  store i32 11, ptr %13, align 4
  call void @llvm.lifetime.end.p0(i64 4, ptr %17) #10
  br label %113

101:                                              ; preds = %95
  %102 = load i32, ptr %17, align 4, !tbaa !9
  %103 = load i32, ptr %8, align 4, !tbaa !9
  %104 = icmp ne i32 %102, %103
  br i1 %104, label %105, label %109

105:                                              ; preds = %101
  %106 = load ptr, ptr %7, align 8, !tbaa !39
  %107 = load i32, ptr %17, align 4, !tbaa !9
  %108 = load i32, ptr %9, align 4, !tbaa !9
  call void @_ZN9btMatrixXIfE7setElemEiif(ptr noundef nonnull align 8 dereferenceable(88) %106, i32 noundef %107, i32 noundef %108, float noundef 0.000000e+00)
  br label %109

109:                                              ; preds = %105, %101
  br label %110

110:                                              ; preds = %109
  %111 = load i32, ptr %17, align 4, !tbaa !9
  %112 = add nsw i32 %111, 1
  store i32 %112, ptr %17, align 4, !tbaa !9
  br label %95, !llvm.loop !65

113:                                              ; preds = %100
  call void @llvm.lifetime.end.p0(i64 4, ptr %11) #10
  ret void
}