; Function Attrs: mustprogress nofree norecurse nosync nounwind memory(readwrite, inaccessiblemem: none) uwtable
define dso_local void @_ZN16btLemkeAlgorithm26GaussJordanEliminationStepER9btMatrixXIfEiiRK20btAlignedObjectArrayIiE(ptr noundef nonnull readnone align 8 captures(none) dereferenceable(140) %0, ptr noundef nonnull align 8 captures(none) dereferenceable(88) %1, i32 noundef %2, i32 noundef %3, ptr noundef nonnull readnone align 8 captures(none) dereferenceable(25) %4) local_unnamed_addr #4 align 2 {
  %6 = getelementptr inbounds nuw i8, ptr %1, i64 4
  %7 = load i32, ptr %6, align 4, !tbaa !32
  %.fr60 = freeze i32 %7
  %8 = mul nsw i32 %.fr60, %2
  %9 = add nsw i32 %8, %3
  %10 = getelementptr inbounds nuw i8, ptr %1, i64 40
  %11 = load ptr, ptr %10, align 8, !tbaa !26
  %12 = sext i32 %9 to i64
  %13 = getelementptr inbounds float, ptr %11, i64 %12
  %14 = load float, ptr %13, align 4, !tbaa !4
  %15 = fdiv float -1.000000e+00, %14
  %16 = load i32, ptr %1, align 8, !tbaa !31
  %17 = icmp sgt i32 %16, 0
  br i1 %17, label %.lr.ph54, label %.preheader49

.lr.ph54:                                         ; preds = %5
  %18 = icmp sgt i32 %.fr60, 0
  %19 = getelementptr inbounds nuw i8, ptr %1, i64 16
  br i1 %18, label %.lr.ph54.split.us.preheader, label %.lr.ph58

.lr.ph54.split.us.preheader:                      ; preds = %.lr.ph54
  %20 = zext i32 %3 to i64
  %21 = sext i32 %8 to i64
  %22 = zext i32 %2 to i64
  %23 = zext nneg i32 %.fr60 to i64
  %24 = sext i32 %3 to i64
  %wide.trip.count66 = zext nneg i32 %16 to i64
  %invariant.gep80 = getelementptr float, ptr %11, i64 %24
  %wide.trip.count = zext nneg i32 %.fr60 to i64
  %invariant.gep78 = getelementptr float, ptr %11, i64 %21
  br label %.lr.ph54.split.us

.lr.ph54.split.us:                                ; preds = %.lr.ph54.split.us.preheader, %..loopexit_crit_edge.us
  %indvars.iv63 = phi i64 [ 0, %.lr.ph54.split.us.preheader ], [ %indvars.iv.next64, %..loopexit_crit_edge.us ]
  %.not47.us = icmp eq i64 %indvars.iv63, %22
  br i1 %.not47.us, label %..loopexit_crit_edge.us, label %.preheader50.us

25:                                               ; preds = %.preheader50.us, %34
  %indvars.iv = phi i64 [ 0, %.preheader50.us ], [ %indvars.iv.next, %34 ]
  %26 = phi i32 [ %.promoted.us, %.preheader50.us ], [ %35, %34 ]
  %.not48.us = icmp eq i64 %indvars.iv, %20
  br i1 %.not48.us, label %34, label %27

27:                                               ; preds = %25
  %gep = getelementptr inbounds nuw float, ptr %invariant.gep, i64 %indvars.iv
  %28 = load float, ptr %gep, align 4, !tbaa !4
  %gep79 = getelementptr float, ptr %invariant.gep78, i64 %indvars.iv
  %29 = load float, ptr %gep79, align 4, !tbaa !4
  %30 = load float, ptr %gep81, align 4, !tbaa !4
  %31 = fmul float %29, %30
  %32 = tail call float @llvm.fmuladd.f32(float %31, float %15, float %28)
  %33 = add nsw i32 %26, 1
  store i32 %33, ptr %19, align 8, !tbaa !35
  store float %32, ptr %gep, align 4, !tbaa !4
  br label %34

34:                                               ; preds = %27, %25
  %35 = phi i32 [ %26, %25 ], [ %33, %27 ]
  %indvars.iv.next = add nuw nsw i64 %indvars.iv, 1
  %exitcond.not = icmp eq i64 %indvars.iv.next, %wide.trip.count
  br i1 %exitcond.not, label %..loopexit_crit_edge.us, label %25, !llvm.loop !55

..loopexit_crit_edge.us:                          ; preds = %34, %.lr.ph54.split.us
  %indvars.iv.next64 = add nuw nsw i64 %indvars.iv63, 1
  %exitcond67.not = icmp eq i64 %indvars.iv.next64, %wide.trip.count66
  br i1 %exitcond67.not, label %.preheader49, label %.lr.ph54.split.us, !llvm.loop !56

.preheader50.us:                                  ; preds = %.lr.ph54.split.us
  %36 = mul nuw nsw i64 %indvars.iv63, %23
  %gep81 = getelementptr float, ptr %invariant.gep80, i64 %36
  %.promoted.us = load i32, ptr %19, align 8
  %invariant.gep = getelementptr inbounds nuw float, ptr %11, i64 %36
  br label %25

.preheader49:                                     ; preds = %..loopexit_crit_edge.us, %5
  %37 = icmp sgt i32 %.fr60, 0
  br i1 %37, label %.lr.ph, label %.preheader

.lr.ph:                                           ; preds = %.preheader49
  %38 = fneg float %15
  %39 = getelementptr inbounds nuw i8, ptr %1, i64 16
  %.promoted = load i32, ptr %39, align 8, !tbaa !35
  %40 = sext i32 %8 to i64
  %wide.trip.count71 = zext nneg i32 %.fr60 to i64
  %invariant.gep82 = getelementptr float, ptr %11, i64 %40
  br label %46

..preheader_crit_edge:                            ; preds = %46
  %41 = add i32 %.fr60, %.promoted
  store i32 %41, ptr %39, align 8, !tbaa !35
  br label %.preheader

.preheader:                                       ; preds = %..preheader_crit_edge, %.preheader49
  br i1 %17, label %.lr.ph58, label %._crit_edge

.lr.ph58:                                         ; preds = %.lr.ph54, %.preheader
  %42 = getelementptr inbounds nuw i8, ptr %1, i64 16
  %.promoted59 = load i32, ptr %42, align 8
  %43 = sext i32 %.fr60 to i64
  %44 = sext i32 %3 to i64
  %45 = zext i32 %2 to i64
  %wide.trip.count76 = zext nneg i32 %16 to i64
  %invariant.gep84 = getelementptr float, ptr %11, i64 %44
  br label %49

46:                                               ; preds = %.lr.ph, %46
  %indvars.iv68 = phi i64 [ 0, %.lr.ph ], [ %indvars.iv.next69, %46 ]
  %gep83 = getelementptr float, ptr %invariant.gep82, i64 %indvars.iv68
  %47 = load float, ptr %gep83, align 4, !tbaa !4
  %48 = fmul float %47, %38
  store float %48, ptr %gep83, align 4, !tbaa !4
  %indvars.iv.next69 = add nuw nsw i64 %indvars.iv68, 1
  %exitcond72.not = icmp eq i64 %indvars.iv.next69, %wide.trip.count71
  br i1 %exitcond72.not, label %..preheader_crit_edge, label %46, !llvm.loop !57

._crit_edge:                                      ; preds = %54, %.preheader
  ret void

49:                                               ; preds = %.lr.ph58, %54
  %indvars.iv73 = phi i64 [ 0, %.lr.ph58 ], [ %indvars.iv.next74, %54 ]
  %50 = phi i32 [ %.promoted59, %.lr.ph58 ], [ %55, %54 ]
  %.not = icmp eq i64 %indvars.iv73, %45
  br i1 %.not, label %54, label %51

51:                                               ; preds = %49
  %52 = add nsw i32 %50, 1
  store i32 %52, ptr %42, align 8, !tbaa !35
  %53 = mul nsw i64 %indvars.iv73, %43
  %gep85 = getelementptr float, ptr %invariant.gep84, i64 %53
  store float 0.000000e+00, ptr %gep85, align 4, !tbaa !4
  br label %54

54:                                               ; preds = %49, %51
  %55 = phi i32 [ %50, %49 ], [ %52, %51 ]
  %indvars.iv.next74 = add nuw nsw i64 %indvars.iv73, 1
  %exitcond77.not = icmp eq i64 %indvars.iv.next74, %wide.trip.count76
  br i1 %exitcond77.not, label %._crit_edge, label %49, !llvm.loop !58
}